; Function Attrs: mustprogress uwtable
define void @_ZN7rocksdb9lru_cache13LRUCacheShard24SetHighPriorityPoolRatioEd(ptr noundef nonnull align 64 dereferenceable(256) %this, double noundef %high_pri_pool_ratio) local_unnamed_addr #0 align 2 personality ptr @__gxx_personality_v0 {
entry:
  %mutex_ = getelementptr inbounds i8, ptr %this, i64 208
  tail call void @_ZN7rocksdb4port5Mutex4LockEv(ptr noundef nonnull align 8 dereferenceable(40) %mutex_)
  %high_pri_pool_ratio_ = getelementptr inbounds i8, ptr %this, i64 40
  store double %high_pri_pool_ratio, ptr %high_pri_pool_ratio_, align 8
  %capacity_ = getelementptr inbounds i8, ptr %this, i64 8
  %0 = load i64, ptr %capacity_, align 8
  %conv = uitofp i64 %0 to double
  %mul = fmul double %conv, %high_pri_pool_ratio
  %high_pri_pool_capacity_ = getelementptr inbounds i8, ptr %this, i64 48
  store double %mul, ptr %high_pri_pool_capacity_, align 16
  %high_pri_pool_usage_.i = getelementptr inbounds i8, ptr %this, i64 16
  %1 = load i64, ptr %high_pri_pool_usage_.i, align 16
  %conv4.i = uitofp i64 %1 to double
  %cmp5.i = fcmp olt double %mul, %conv4.i
  br i1 %cmp5.i, label %while.body.lr.ph.i, label %entry.while.cond9.preheader_crit_edge.i

entry.while.cond9.preheader_crit_edge.i:          ; preds = %entry
  %low_pri_pool_usage_10.phi.trans.insert.i = getelementptr inbounds i8, ptr %this, i64 24
  %.pre8.i = load i64, ptr %low_pri_pool_usage_10.phi.trans.insert.i, align 8
  br label %while.cond9.preheader.i

while.body.lr.ph.i:                               ; preds = %entry
  %lru_low_pri_.i = getelementptr inbounds i8, ptr %this, i64 144
  %low_pri_pool_usage_.i = getelementptr inbounds i8, ptr %this, i64 24
  %.pre.i = load ptr, ptr %lru_low_pri_.i, align 16
  br label %while.body.i

while.cond9.preheader.i:                          ; preds = %while.body.i, %entry.while.cond9.preheader_crit_edge.i
  %2 = phi i64 [ %.pre8.i, %entry.while.cond9.preheader_crit_edge.i ], [ %add.i, %while.body.i ]
  %low_pri_pool_usage_10.i = getelementptr inbounds i8, ptr %this, i64 24
  %low_pri_pool_capacity_.i = getelementptr inbounds i8, ptr %this, i64 64
  %conv116.i = uitofp i64 %2 to double
  %3 = load double, ptr %low_pri_pool_capacity_.i, align 64
  %cmp127.i = fcmp olt double %3, %conv116.i
  br i1 %cmp127.i, label %while.body13.lr.ph.i, label %invoke.cont

while.body13.lr.ph.i:                             ; preds = %while.cond9.preheader.i
  %lru_bottom_pri_.i = getelementptr inbounds i8, ptr %this, i64 152
  %.pre9.i = load ptr, ptr %lru_bottom_pri_.i, align 8
  br label %while.body13.i

while.body.i:                                     ; preds = %while.body.i, %while.body.lr.ph.i
  %4 = phi ptr [ %.pre.i, %while.body.lr.ph.i ], [ %10, %while.body.i ]
  %next.i = getelementptr inbounds i8, ptr %4, i64 24
  %5 = load ptr, ptr %next.i, align 8
  store ptr %5, ptr %lru_low_pri_.i, align 16
  %m_flags.i.i = getelementptr inbounds i8, ptr %5, i64 64
  %6 = load i8, ptr %m_flags.i.i, align 8
  %7 = and i8 %6, -5
  store i8 %7, ptr %m_flags.i.i, align 8
  %8 = load ptr, ptr %lru_low_pri_.i, align 16
  %m_flags.i1.i = getelementptr inbounds i8, ptr %8, i64 64
  %9 = load i8, ptr %m_flags.i1.i, align 8
  %.sink.i.i = or i8 %9, 8
  store i8 %.sink.i.i, ptr %m_flags.i1.i, align 8
  %10 = load ptr, ptr %lru_low_pri_.i, align 16
  %total_charge.i = getelementptr inbounds i8, ptr %10, i64 40
  %11 = load i64, ptr %total_charge.i, align 8
  %12 = load i64, ptr %high_pri_pool_usage_.i, align 16
  %sub.i = sub i64 %12, %11
  store i64 %sub.i, ptr %high_pri_pool_usage_.i, align 16
  %13 = load i64, ptr %total_charge.i, align 8
  %14 = load i64, ptr %low_pri_pool_usage_.i, align 8
  %add.i = add i64 %14, %13
  store i64 %add.i, ptr %low_pri_pool_usage_.i, align 8
  %conv.i = uitofp i64 %sub.i to double
  %15 = load double, ptr %high_pri_pool_capacity_, align 16
  %cmp.i = fcmp olt double %15, %conv.i
  br i1 %cmp.i, label %while.body.i, label %while.cond9.preheader.i, !llvm.loop !19

while.body13.i:                                   ; preds = %while.body13.i, %while.body13.lr.ph.i
  %16 = phi ptr [ %.pre9.i, %while.body13.lr.ph.i ], [ %23, %while.body13.i ]
  %next14.i = getelementptr inbounds i8, ptr %16, i64 24
  %17 = load ptr, ptr %next14.i, align 8
  store ptr %17, ptr %lru_bottom_pri_.i, align 8
  %m_flags.i2.i = getelementptr inbounds i8, ptr %17, i64 64
  %18 = load i8, ptr %m_flags.i2.i, align 8
  %19 = and i8 %18, -5
  store i8 %19, ptr %m_flags.i2.i, align 8
  %20 = load ptr, ptr %lru_bottom_pri_.i, align 8
  %m_flags.i3.i = getelementptr inbounds i8, ptr %20, i64 64
  %21 = load i8, ptr %m_flags.i3.i, align 8
  %22 = and i8 %21, -9
  store i8 %22, ptr %m_flags.i3.i, align 8
  %23 = load ptr, ptr %lru_bottom_pri_.i, align 8
  %total_charge19.i = getelementptr inbounds i8, ptr %23, i64 40
  %24 = load i64, ptr %total_charge19.i, align 8
  %25 = load i64, ptr %low_pri_pool_usage_10.i, align 8
  %sub21.i = sub i64 %25, %24
  store i64 %sub21.i, ptr %low_pri_pool_usage_10.i, align 8
  %conv11.i = uitofp i64 %sub21.i to double
  %26 = load double, ptr %low_pri_pool_capacity_.i, align 64
  %cmp12.i = fcmp olt double %26, %conv11.i
  br i1 %cmp12.i, label %while.body13.i, label %invoke.cont, !llvm.loop !20

invoke.cont:                                      ; preds = %while.body13.i, %while.cond9.preheader.i
  invoke void @_ZN7rocksdb4port5Mutex6UnlockEv(ptr noundef nonnull align 8 dereferenceable(40) %mutex_)
          to label %_ZNSt10lock_guardIN7rocksdb4port5MutexEED2Ev.exit unwind label %terminate.lpad.i

terminate.lpad.i:                                 ; preds = %invoke.cont
  %27 = landingpad { ptr, i32 }
          catch ptr null
  %28 = extractvalue { ptr, i32 } %27, 0
  tail call void @__clang_call_terminate(ptr %28) #27
  unreachable

_ZNSt10lock_guardIN7rocksdb4port5MutexEED2Ev.exit: ; preds = %invoke.cont
  ret void
}